; Function Attrs: mustprogress uwtable
define void @_ZN2cv5aruco10DictionaryC2ERKNS_3MatEii(ptr noundef nonnull align 8 dereferenceable(104) %0, ptr noundef nonnull align 8 dereferenceable(96) %1, i32 noundef %2, i32 noundef %3) unnamed_addr #2 align 2 personality ptr @__gxx_personality_v0 {
  tail call void @_ZN2cv3MatC1Ev(ptr noundef nonnull align 8 dereferenceable(96) %0) #15
  %5 = getelementptr inbounds nuw i8, ptr %0, i64 96
  store i32 %2, ptr %5, align 8, !tbaa !3
  %6 = getelementptr inbounds nuw i8, ptr %0, i64 100
  store i32 %3, ptr %6, align 4, !tbaa !17
  %7 = invoke noundef nonnull align 8 dereferenceable(96) ptr @_ZN2cv3MataSERKS0_(ptr noundef nonnull align 8 dereferenceable(96) %0, ptr noundef nonnull align 8 dereferenceable(96) %1)
          to label %8 unwind label %9

8:                                                ; preds = %4
  ret void

9:                                                ; preds = %4
  %10 = landingpad { ptr, i32 }
          cleanup
  tail call void @_ZN2cv3MatD1Ev(ptr noundef nonnull align 8 dereferenceable(96) %0) #15
  resume { ptr, i32 } %10
}